; Function Attrs: nounwind uwtable
define internal zeroext i1 @HIDAPI_DriverSwitch_SetJoystickSensorsEnabled(ptr noundef readonly captures(none) %0, ptr readnone captures(none) %1, i1 noundef zeroext %2) #0 {
  %4 = alloca i8, align 1
  %5 = alloca i8, align 1
  %6 = zext i1 %2 to i8
  %7 = getelementptr inbounds nuw i8, ptr %0, i64 112
  %8 = load ptr, ptr %7, align 8
  %9 = getelementptr inbounds nuw i8, ptr %8, i64 48
  %10 = load i32, ptr %9, align 8
  %11 = icmp eq i32 %10, 2
  br i1 %11, label %12, label %UpdateEnhancedModeOnApplicationUsage.exit

12:                                               ; preds = %3
  tail call fastcc void @SetEnhancedReportHint(ptr noundef nonnull %8, i32 noundef 1)
  br label %UpdateEnhancedModeOnApplicationUsage.exit

UpdateEnhancedModeOnApplicationUsage.exit:        ; preds = %3, %12
  %13 = getelementptr inbounds nuw i8, ptr %8, i64 152
  %14 = load i8, ptr %13, align 8, !range !3, !noundef !4
  %15 = trunc nuw i8 %14 to i1
  br i1 %15, label %16, label %21

16:                                               ; preds = %UpdateEnhancedModeOnApplicationUsage.exit
  br i1 %2, label %17, label %23

17:                                               ; preds = %16
  %18 = getelementptr inbounds nuw i8, ptr %8, i64 52
  %19 = load i8, ptr %18, align 4, !range !3, !noundef !4
  %20 = trunc nuw i8 %19 to i1
  br i1 %20, label %23, label %21

21:                                               ; preds = %17, %UpdateEnhancedModeOnApplicationUsage.exit
  %22 = tail call zeroext i1 (ptr, ...) @SDL_SetError_REAL(ptr noundef nonnull @.str.27) #9
  br label %63

23:                                               ; preds = %17, %16
  %24 = getelementptr inbounds nuw i8, ptr %8, i64 153
  store i8 %6, ptr %24, align 1
  %25 = getelementptr inbounds nuw i8, ptr %8, i64 184
  store i32 0, ptr %25, align 8
  %26 = tail call i64 @SDL_GetTicksNS_REAL() #9
  %27 = getelementptr inbounds nuw i8, ptr %8, i64 176
  store i64 %26, ptr %27, align 8
  %28 = load i8, ptr %24, align 1, !range !3, !noundef !4
  %29 = trunc nuw i8 %28 to i1
  %30 = getelementptr i8, ptr %8, i64 36
  %.val.i = load i8, ptr %30, align 4
  br i1 %29, label %31, label %33

31:                                               ; preds = %23
  switch i8 %.val.i, label %32 [
    i8 0, label %GetSensorInputMode.exit.i
    i8 63, label %GetSensorInputMode.exit.i
  ]

32:                                               ; preds = %31
  br label %GetSensorInputMode.exit.i

33:                                               ; preds = %23
  %.not.i.i = icmp eq i8 %.val.i, 0
  br i1 %.not.i.i, label %34, label %39

34:                                               ; preds = %33
  %35 = load ptr, ptr %8, align 8
  %36 = getelementptr inbounds nuw i8, ptr %35, i64 84
  %37 = load i8, ptr %36, align 4, !range !3, !noundef !4
  %38 = trunc nuw i8 %37 to i1
  %..i.i = select i1 %38, i8 63, i8 48
  br label %39

39:                                               ; preds = %34, %33
  %.0.i4.i = phi i8 [ %.val.i, %33 ], [ %..i.i, %34 ]
  %40 = load i32, ptr %9, align 8
  switch i32 %40, label %51 [
    i32 0, label %.thread15.i.i
    i32 1, label %41
    i32 2, label %42
  ]

41:                                               ; preds = %39
  %cond.i.i = icmp eq i8 %.0.i4.i, 63
  br i1 %cond.i.i, label %GetSensorInputMode.exit.i, label %.thread.fold.split.i.i

42:                                               ; preds = %39
  %43 = load ptr, ptr %8, align 8
  %44 = getelementptr inbounds nuw i8, ptr %43, i64 32
  %45 = load i16, ptr %44, align 8
  %46 = icmp eq i16 %45, 1406
  br i1 %46, label %47, label %51

47:                                               ; preds = %42
  %48 = getelementptr inbounds nuw i8, ptr %43, i64 34
  %49 = load i16, ptr %48, align 2
  %50 = and i16 %49, -2
  %switch.i.i = icmp eq i16 %50, 8198
  br i1 %switch.i.i, label %GetSensorInputMode.exit.i, label %51

51:                                               ; preds = %47, %42, %39
  %52 = icmp eq i8 %.0.i4.i, 63
  br i1 %52, label %.thread15.i.i, label %.thread.fold.split.i.i

.thread15.i.i:                                    ; preds = %51, %39
  %53 = load ptr, ptr %8, align 8
  %54 = getelementptr inbounds nuw i8, ptr %53, i64 84
  %55 = load i8, ptr %54, align 4, !range !3, !noundef !4
  %56 = trunc nuw i8 %55 to i1
  %spec.select.i.i = select i1 %56, i8 63, i8 48
  br label %GetSensorInputMode.exit.i

.thread.fold.split.i.i:                           ; preds = %51, %41
  br label %GetSensorInputMode.exit.i

GetSensorInputMode.exit.i:                        ; preds = %.thread.fold.split.i.i, %.thread15.i.i, %47, %41, %32, %31, %31
  %.0.i = phi i8 [ %.val.i, %32 ], [ 48, %31 ], [ 48, %31 ], [ %spec.select.i.i, %.thread15.i.i ], [ 48, %41 ], [ 48, %47 ], [ %.0.i4.i, %.thread.fold.split.i.i ]
  call void @llvm.lifetime.start.p0(i64 1, ptr nonnull %5)
  store i8 %.0.i, ptr %5, align 1
  %57 = getelementptr inbounds nuw i8, ptr %8, i64 37
  %58 = load i8, ptr %57, align 1
  %59 = icmp eq i8 %.0.i, %58
  br i1 %59, label %UpdateInputMode.exit, label %60

60:                                               ; preds = %GetSensorInputMode.exit.i
  store i8 %.0.i, ptr %57, align 1
  %61 = call fastcc zeroext i1 @WriteSubcommand(ptr noundef nonnull %8, i32 noundef 3, ptr noundef nonnull %5, i8 noundef zeroext 1, ptr noundef null)
  br label %UpdateInputMode.exit

UpdateInputMode.exit:                             ; preds = %GetSensorInputMode.exit.i, %60
  call void @llvm.lifetime.end.p0(i64 1, ptr nonnull %5)
  call void @llvm.lifetime.start.p0(i64 1, ptr nonnull %4) #9
  store i8 %6, ptr %4, align 1
  %62 = call fastcc noundef zeroext i1 @WriteSubcommand(ptr noundef nonnull %8, i32 noundef 64, ptr noundef nonnull %4, i8 noundef zeroext 1, ptr noundef null)
  call void @llvm.lifetime.end.p0(i64 1, ptr nonnull %4) #9
  br label %63

63:                                               ; preds = %UpdateInputMode.exit, %21
  %.0 = phi i1 [ true, %UpdateInputMode.exit ], [ %22, %21 ]
  ret i1 %.0
}